target datalayout = "e-m:e-p270:32:32-p271:32:32-p272:64:64-i64:64-i128:128-f80:128-n8:16:32:64-S128"
target triple = "x86_64-pc-linux-gnu"

%struct.PLpgSQL_execstate = type { ptr, ptr, ptr, i64, i8, i32, i32, i8, i8, i8, i8, ptr, ptr, ptr, ptr, ptr, ptr, ptr, i32, i32, ptr, ptr, ptr, ptr, ptr, ptr, ptr, ptr, ptr, ptr, i64, ptr, ptr, ptr, ptr, ptr }
%struct.ExprContext = type { i32, ptr, ptr, ptr, ptr, ptr, ptr, ptr, ptr, ptr, i64, i8, i64, i8, ptr, ptr, ptr, ptr }
%struct.ParamListInfoData = type { ptr, ptr, ptr, ptr, ptr, ptr, ptr, i32, [0 x %struct.ParamExternData] }
%struct.ParamExternData = type { i64, i8, i16, i32 }
%struct.ForEachState = type { ptr, i32 }
%struct.List = type { i32, i32, i32, ptr, [0 x %union.ListCell] }
%union.ListCell = type { ptr }

@CurrentMemoryContext = external global ptr, align 8
@.str.41 = private unnamed_addr constant [27 x i8] c"PLpgSQL per-statement data\00", align 1

; Function Attrs: inlinehint nounwind uwtable
define internal ptr @DatumGetPointer(i64 noundef %0) #2 {
  %2 = alloca i64, align 8
  store i64 %0, ptr %2, align 8
  %3 = load i64, ptr %2, align 8
  %4 = inttoptr i64 %3 to ptr
  ret ptr %4
}

; Function Attrs: nounwind uwtable
define internal void @exec_eval_cleanup(ptr noundef %0) #0 {
  %2 = alloca ptr, align 8
  store ptr %0, ptr %2, align 8
  %3 = load ptr, ptr %2, align 8
  %4 = getelementptr inbounds nuw %struct.PLpgSQL_execstate, ptr %3, i32 0, i32 29
  %5 = load ptr, ptr %4, align 8
  %6 = icmp ne ptr %5, null
  br i1 %6, label %7, label %11

7:                                                ; preds = %1
  %8 = load ptr, ptr %2, align 8
  %9 = getelementptr inbounds nuw %struct.PLpgSQL_execstate, ptr %8, i32 0, i32 29
  %10 = load ptr, ptr %9, align 8
  call void @SPI_freetuptable(ptr noundef %10)
  br label %11

11:                                               ; preds = %7, %1
  %12 = load ptr, ptr %2, align 8
  %13 = getelementptr inbounds nuw %struct.PLpgSQL_execstate, ptr %12, i32 0, i32 29
  store ptr null, ptr %13, align 8
  %14 = load ptr, ptr %2, align 8
  %15 = getelementptr inbounds nuw %struct.PLpgSQL_execstate, ptr %14, i32 0, i32 31
  %16 = load ptr, ptr %15, align 8
  %17 = icmp ne ptr %16, null
  br i1 %17, label %18, label %24

18:                                               ; preds = %11
  %19 = load ptr, ptr %2, align 8
  %20 = getelementptr inbounds nuw %struct.PLpgSQL_execstate, ptr %19, i32 0, i32 31
  %21 = load ptr, ptr %20, align 8
  %22 = getelementptr inbounds nuw %struct.ExprContext, ptr %21, i32 0, i32 5
  %23 = load ptr, ptr %22, align 8
  call void @MemoryContextReset(ptr noundef %23)
  br label %24

24:                                               ; preds = %18, %11
  ret void
}

; Function Attrs: inlinehint nounwind uwtable
define internal i64 @PointerGetDatum(ptr noundef %0) #2 {
  %2 = alloca ptr, align 8
  store ptr %0, ptr %2, align 8
  %3 = load ptr, ptr %2, align 8
  %4 = ptrtoint ptr %3 to i64
  ret i64 %4
}

; Function Attrs: inlinehint nounwind uwtable
define internal ptr @DatumGetCString(i64 noundef %0) #2 {
  %2 = alloca i64, align 8
  store i64 %0, ptr %2, align 8
  %3 = load i64, ptr %2, align 8
  %4 = call ptr @DatumGetPointer(i64 noundef %3)
  ret ptr %4
}

; Function Attrs: inlinehint nounwind uwtable
define internal ptr @MemoryContextSwitchTo(ptr noundef %0) #2 {
  %2 = alloca ptr, align 8
  %3 = alloca ptr, align 8
  store ptr %0, ptr %2, align 8
  call void @llvm.lifetime.start.p0(i64 8, ptr %3) #12
  %4 = load ptr, ptr @CurrentMemoryContext, align 8
  store ptr %4, ptr %3, align 8
  %5 = load ptr, ptr %2, align 8
  store ptr %5, ptr @CurrentMemoryContext, align 8
  %6 = load ptr, ptr %3, align 8
  call void @llvm.lifetime.end.p0(i64 8, ptr %3) #12
  ret ptr %6
}

; Function Attrs: nounwind uwtable
define internal ptr @get_stmt_mcontext(ptr noundef %0) #0 {
  %2 = alloca ptr, align 8
  %3 = alloca i32, align 4
  store ptr %0, ptr %2, align 8
  %4 = load ptr, ptr %2, align 8
  %5 = getelementptr inbounds nuw %struct.PLpgSQL_execstate, ptr %4, i32 0, i32 27
  %6 = load ptr, ptr %5, align 8
  %7 = icmp eq ptr %6, null
  br i1 %7, label %8, label %17

8:                                                ; preds = %1
  br label %9

9:                                                ; preds = %8
  br label %10

10:                                               ; preds = %9
  store i32 1, ptr %3, align 4
  %11 = load ptr, ptr %2, align 8
  %12 = getelementptr inbounds nuw %struct.PLpgSQL_execstate, ptr %11, i32 0, i32 28
  %13 = load ptr, ptr %12, align 8
  %14 = call ptr @AllocSetContextCreateInternal(ptr noundef %13, ptr noundef @.str.41, i64 noundef 0, i64 noundef 8192, i64 noundef 8388608)
  %15 = load ptr, ptr %2, align 8
  %16 = getelementptr inbounds nuw %struct.PLpgSQL_execstate, ptr %15, i32 0, i32 27
  store ptr %14, ptr %16, align 8
  br label %17

17:                                               ; preds = %10, %1
  %18 = load ptr, ptr %2, align 8
  %19 = getelementptr inbounds nuw %struct.PLpgSQL_execstate, ptr %18, i32 0, i32 27
  %20 = load ptr, ptr %19, align 8
  ret ptr %20
}

; Function Attrs: inlinehint nounwind uwtable
define internal i32 @list_length(ptr noundef %0) #2 {
  %2 = alloca ptr, align 8
  store ptr %0, ptr %2, align 8
  %3 = load ptr, ptr %2, align 8
  %4 = icmp ne ptr %3, null
  br i1 %4, label %5, label %9

5:                                                ; preds = %1
  %6 = load ptr, ptr %2, align 8
  %7 = getelementptr inbounds nuw %struct.List, ptr %6, i32 0, i32 1
  %8 = load i32, ptr %7, align 4
  br label %10

9:                                                ; preds = %1
  br label %10

10:                                               ; preds = %9, %5
  %11 = phi i32 [ %8, %5 ], [ 0, %9 ]
  ret i32 %11
}

; Function Attrs: nounwind uwtable
define internal ptr @exec_eval_using_params(ptr noundef %0, ptr noundef %1) #0 {
  %3 = alloca ptr, align 8
  %4 = alloca ptr, align 8
  %5 = alloca ptr, align 8
  %6 = alloca ptr, align 8
  %7 = alloca i32, align 4
  %8 = alloca ptr, align 8
  %9 = alloca ptr, align 8
  %10 = alloca i32, align 4
  %11 = alloca ptr, align 8
  %12 = alloca i32, align 4
  %13 = alloca %struct.ForEachState, align 8
  %14 = alloca ptr, align 8
  %15 = alloca ptr, align 8
  %16 = alloca i32, align 4
  %17 = alloca i16, align 2
  %18 = alloca i8, align 1
  store ptr %0, ptr %4, align 8
  store ptr %1, ptr %5, align 8
  call void @llvm.lifetime.start.p0(i64 8, ptr %6) #12
  call void @llvm.lifetime.start.p0(i64 4, ptr %7) #12
  call void @llvm.lifetime.start.p0(i64 8, ptr %8) #12
  call void @llvm.lifetime.start.p0(i64 8, ptr %9) #12
  call void @llvm.lifetime.start.p0(i64 4, ptr %10) #12
  call void @llvm.lifetime.start.p0(i64 8, ptr %11) #12
  %19 = load ptr, ptr %5, align 8
  %20 = icmp eq ptr %19, null
  br i1 %20, label %21, label %22

21:                                               ; preds = %2
  store ptr null, ptr %3, align 8
  store i32 1, ptr %12, align 4
  br label %141

22:                                               ; preds = %2
  %23 = load ptr, ptr %5, align 8
  %24 = call i32 @list_length(ptr noundef %23)
  store i32 %24, ptr %7, align 4
  %25 = load ptr, ptr %4, align 8
  %26 = call ptr @get_stmt_mcontext(ptr noundef %25)
  store ptr %26, ptr %8, align 8
  %27 = load ptr, ptr %8, align 8
  %28 = call ptr @MemoryContextSwitchTo(ptr noundef %27)
  store ptr %28, ptr %9, align 8
  %29 = load i32, ptr %7, align 4
  %30 = call ptr @makeParamList(i32 noundef %29)
  store ptr %30, ptr %6, align 8
  %31 = load ptr, ptr %9, align 8
  %32 = call ptr @MemoryContextSwitchTo(ptr noundef %31)
  store i32 0, ptr %10, align 4
  call void @llvm.lifetime.start.p0(i64 16, ptr %13) #12
  %33 = getelementptr inbounds nuw %struct.ForEachState, ptr %13, i32 0, i32 0
  %34 = load ptr, ptr %5, align 8
  store ptr %34, ptr %33, align 8
  %35 = getelementptr inbounds nuw %struct.ForEachState, ptr %13, i32 0, i32 1
  store i32 0, ptr %35, align 8
  %36 = getelementptr i8, ptr %13, i64 12
  call void @llvm.memset.p0.i64(ptr align 4 %36, i8 0, i64 4, i1 false)
  br label %37

37:                                               ; preds = %135, %22
  %38 = getelementptr inbounds nuw %struct.ForEachState, ptr %13, i32 0, i32 0
  %39 = load ptr, ptr %38, align 8
  %40 = icmp ne ptr %39, null
  br i1 %40, label %41, label %58

41:                                               ; preds = %37
  %42 = getelementptr inbounds nuw %struct.ForEachState, ptr %13, i32 0, i32 1
  %43 = load i32, ptr %42, align 8
  %44 = getelementptr inbounds nuw %struct.ForEachState, ptr %13, i32 0, i32 0
  %45 = load ptr, ptr %44, align 8
  %46 = getelementptr inbounds nuw %struct.List, ptr %45, i32 0, i32 1
  %47 = load i32, ptr %46, align 4
  %48 = icmp slt i32 %43, %47
  br i1 %48, label %49, label %58

49:                                               ; preds = %41
  %50 = getelementptr inbounds nuw %struct.ForEachState, ptr %13, i32 0, i32 0
  %51 = load ptr, ptr %50, align 8
  %52 = getelementptr inbounds nuw %struct.List, ptr %51, i32 0, i32 3
  %53 = load ptr, ptr %52, align 8
  %54 = getelementptr inbounds nuw %struct.ForEachState, ptr %13, i32 0, i32 1
  %55 = load i32, ptr %54, align 8
  %56 = sext i32 %55 to i64
  %57 = getelementptr inbounds %union.ListCell, ptr %53, i64 %56
  store ptr %57, ptr %11, align 8
  br label %59

58:                                               ; preds = %41, %37
  store ptr null, ptr %11, align 8
  br label %59

59:                                               ; preds = %58, %49
  %60 = phi i32 [ 1, %49 ], [ 0, %58 ]
  %61 = icmp ne i32 %60, 0
  br i1 %61, label %63, label %62

62:                                               ; preds = %59
  store i32 2, ptr %12, align 4
  call void @llvm.lifetime.end.p0(i64 16, ptr %13) #12
  br label %139

63:                                               ; preds = %59
  call void @llvm.lifetime.start.p0(i64 8, ptr %14) #12
  %64 = load ptr, ptr %11, align 8
  %65 = load ptr, ptr %64, align 8
  store ptr %65, ptr %14, align 8
  call void @llvm.lifetime.start.p0(i64 8, ptr %15) #12
  %66 = load ptr, ptr %6, align 8
  %67 = getelementptr inbounds nuw %struct.ParamListInfoData, ptr %66, i32 0, i32 8
  %68 = load i32, ptr %10, align 4
  %69 = sext i32 %68 to i64
  %70 = getelementptr inbounds [0 x %struct.ParamExternData], ptr %67, i64 0, i64 %69
  store ptr %70, ptr %15, align 8
  call void @llvm.lifetime.start.p0(i64 4, ptr %16) #12
  %71 = load ptr, ptr %15, align 8
  %72 = getelementptr inbounds nuw %struct.ParamExternData, ptr %71, i32 0, i32 2
  store i16 1, ptr %72, align 2
  %73 = load ptr, ptr %4, align 8
  %74 = load ptr, ptr %14, align 8
  %75 = load ptr, ptr %15, align 8
  %76 = getelementptr inbounds nuw %struct.ParamExternData, ptr %75, i32 0, i32 1
  %77 = load ptr, ptr %15, align 8
  %78 = getelementptr inbounds nuw %struct.ParamExternData, ptr %77, i32 0, i32 3
  %79 = call i64 @exec_eval_expr(ptr noundef %73, ptr noundef %74, ptr noundef %76, ptr noundef %78, ptr noundef %16)
  %80 = load ptr, ptr %15, align 8
  %81 = getelementptr inbounds nuw %struct.ParamExternData, ptr %80, i32 0, i32 0
  store i64 %79, ptr %81, align 8
  %82 = load ptr, ptr %8, align 8
  %83 = call ptr @MemoryContextSwitchTo(ptr noundef %82)
  store ptr %83, ptr %9, align 8
  %84 = load ptr, ptr %15, align 8
  %85 = getelementptr inbounds nuw %struct.ParamExternData, ptr %84, i32 0, i32 3
  %86 = load i32, ptr %85, align 4
  %87 = icmp eq i32 %86, 705
  br i1 %87, label %88, label %105

88:                                               ; preds = %63
  %89 = load ptr, ptr %15, align 8
  %90 = getelementptr inbounds nuw %struct.ParamExternData, ptr %89, i32 0, i32 3
  store i32 25, ptr %90, align 4
  %91 = load ptr, ptr %15, align 8
  %92 = getelementptr inbounds nuw %struct.ParamExternData, ptr %91, i32 0, i32 1
  %93 = load i8, ptr %92, align 8, !range !3, !noundef !4
  %94 = trunc i8 %93 to i1
  br i1 %94, label %104, label %95

95:                                               ; preds = %88
  %96 = load ptr, ptr %15, align 8
  %97 = getelementptr inbounds nuw %struct.ParamExternData, ptr %96, i32 0, i32 0
  %98 = load i64, ptr %97, align 8
  %99 = call ptr @DatumGetCString(i64 noundef %98)
  %100 = call ptr @cstring_to_text(ptr noundef %99)
  %101 = call i64 @PointerGetDatum(ptr noundef %100)
  %102 = load ptr, ptr %15, align 8
  %103 = getelementptr inbounds nuw %struct.ParamExternData, ptr %102, i32 0, i32 0
  store i64 %101, ptr %103, align 8
  br label %104

104:                                              ; preds = %95, %88
  br label %129

105:                                              ; preds = %63
  %106 = load ptr, ptr %15, align 8
  %107 = getelementptr inbounds nuw %struct.ParamExternData, ptr %106, i32 0, i32 1
  %108 = load i8, ptr %107, align 8, !range !3, !noundef !4
  %109 = trunc i8 %108 to i1
  br i1 %109, label %128, label %110

110:                                              ; preds = %105
  call void @llvm.lifetime.start.p0(i64 2, ptr %17) #12
  call void @llvm.lifetime.start.p0(i64 1, ptr %18) #12
  %111 = load ptr, ptr %15, align 8
  %112 = getelementptr inbounds nuw %struct.ParamExternData, ptr %111, i32 0, i32 3
  %113 = load i32, ptr %112, align 4
  call void @get_typlenbyval(i32 noundef %113, ptr noundef %17, ptr noundef %18)
  %114 = load i8, ptr %18, align 1, !range !3, !noundef !4
  %115 = trunc i8 %114 to i1
  br i1 %115, label %127, label %116

116:                                              ; preds = %110
  %117 = load ptr, ptr %15, align 8
  %118 = getelementptr inbounds nuw %struct.ParamExternData, ptr %117, i32 0, i32 0
  %119 = load i64, ptr %118, align 8
  %120 = load i8, ptr %18, align 1, !range !3, !noundef !4
  %121 = trunc i8 %120 to i1
  %122 = load i16, ptr %17, align 2
  %123 = sext i16 %122 to i32
  %124 = call i64 @datumCopy(i64 noundef %119, i1 noundef zeroext %121, i32 noundef %123)
  %125 = load ptr, ptr %15, align 8
  %126 = getelementptr inbounds nuw %struct.ParamExternData, ptr %125, i32 0, i32 0
  store i64 %124, ptr %126, align 8
  br label %127

127:                                              ; preds = %116, %110
  call void @llvm.lifetime.end.p0(i64 1, ptr %18) #12
  call void @llvm.lifetime.end.p0(i64 2, ptr %17) #12
  br label %128

128:                                              ; preds = %127, %105
  br label %129

129:                                              ; preds = %128, %104
  %130 = load ptr, ptr %9, align 8
  %131 = call ptr @MemoryContextSwitchTo(ptr noundef %130)
  %132 = load ptr, ptr %4, align 8
  call void @exec_eval_cleanup(ptr noundef %132)
  %133 = load i32, ptr %10, align 4
  %134 = add i32 %133, 1
  store i32 %134, ptr %10, align 4
  call void @llvm.lifetime.end.p0(i64 4, ptr %16) #12
  call void @llvm.lifetime.end.p0(i64 8, ptr %15) #12
  call void @llvm.lifetime.end.p0(i64 8, ptr %14) #12
  br label %135

135:                                              ; preds = %129
  %136 = getelementptr inbounds nuw %struct.ForEachState, ptr %13, i32 0, i32 1
  %137 = load i32, ptr %136, align 8
  %138 = add i32 %137, 1
  store i32 %138, ptr %136, align 8
  br label %37, !llvm.loop !27

139:                                              ; preds = %62
  %140 = load ptr, ptr %6, align 8
  store ptr %140, ptr %3, align 8
  store i32 1, ptr %12, align 4
  br label %141

141:                                              ; preds = %139, %21
  call void @llvm.lifetime.end.p0(i64 8, ptr %11) #12
  call void @llvm.lifetime.end.p0(i64 4, ptr %10) #12
  call void @llvm.lifetime.end.p0(i64 8, ptr %9) #12
  call void @llvm.lifetime.end.p0(i64 8, ptr %8) #12
  call void @llvm.lifetime.end.p0(i64 4, ptr %7) #12
  call void @llvm.lifetime.end.p0(i64 8, ptr %6) #12
  %142 = load ptr, ptr %3, align 8
  ret ptr %142
}