; Function Attrs: nounwind uwtable
define internal fastcc ptr @exec_eval_using_params(ptr noundef nonnull captures(none) %0, ptr noundef readonly captures(address_is_null) %1) unnamed_addr #0 {
  %3 = alloca i32, align 4
  %4 = alloca i16, align 2
  %5 = alloca i8, align 1
  %6 = icmp eq ptr %1, null
  br i1 %6, label %.loopexit, label %list_length.exit

list_length.exit:                                 ; preds = %2
  %7 = getelementptr inbounds nuw i8, ptr %1, i64 4
  %8 = load i32, ptr %7, align 4
  %9 = getelementptr inbounds nuw i8, ptr %0, i64 168
  %10 = load ptr, ptr %9, align 8
  %11 = icmp eq ptr %10, null
  br i1 %11, label %12, label %get_stmt_mcontext.exit

12:                                               ; preds = %list_length.exit
  %13 = getelementptr inbounds nuw i8, ptr %0, i64 176
  %14 = load ptr, ptr %13, align 8
  %15 = tail call ptr @AllocSetContextCreateInternal(ptr noundef %14, ptr noundef nonnull @.str.41, i64 noundef 0, i64 noundef 8192, i64 noundef 8388608) #12
  store ptr %15, ptr %9, align 8
  br label %get_stmt_mcontext.exit

get_stmt_mcontext.exit:                           ; preds = %list_length.exit, %12
  %16 = phi ptr [ %15, %12 ], [ %10, %list_length.exit ]
  %17 = load ptr, ptr @CurrentMemoryContext, align 8
  store ptr %16, ptr @CurrentMemoryContext, align 8
  %18 = tail call ptr @makeParamList(i32 noundef %8) #12
  store ptr %17, ptr @CurrentMemoryContext, align 8
  %19 = load i32, ptr %7, align 4
  %.not40 = icmp sgt i32 %19, 0
  br i1 %.not40, label %.lr.ph, label %.loopexit

.lr.ph:                                           ; preds = %get_stmt_mcontext.exit
  %20 = getelementptr inbounds nuw i8, ptr %1, i64 16
  %21 = getelementptr inbounds nuw i8, ptr %18, i64 64
  %22 = getelementptr inbounds nuw i8, ptr %0, i64 184
  %23 = getelementptr inbounds nuw i8, ptr %0, i64 200
  br label %24

24:                                               ; preds = %.lr.ph, %exec_eval_cleanup.exit
  %indvars.iv = phi i64 [ 0, %.lr.ph ], [ %indvars.iv.next, %exec_eval_cleanup.exit ]
  %25 = load ptr, ptr %20, align 8
  %26 = getelementptr inbounds nuw %union.ListCell, ptr %25, i64 %indvars.iv
  %27 = load ptr, ptr %26, align 8
  %28 = getelementptr inbounds nuw [0 x %struct.ParamExternData], ptr %21, i64 0, i64 %indvars.iv
  call void @llvm.lifetime.start.p0(i64 4, ptr nonnull %3) #12
  %29 = getelementptr inbounds nuw i8, ptr %28, i64 10
  store i16 1, ptr %29, align 2
  %30 = getelementptr inbounds nuw i8, ptr %28, i64 8
  %31 = getelementptr inbounds nuw i8, ptr %28, i64 12
  %32 = call fastcc i64 @exec_eval_expr(ptr noundef nonnull %0, ptr noundef %27, ptr noundef nonnull %30, ptr noundef nonnull %31, ptr noundef %3)
  store i64 %32, ptr %28, align 8
  %33 = load ptr, ptr @CurrentMemoryContext, align 8
  store ptr %16, ptr @CurrentMemoryContext, align 8
  %34 = load i32, ptr %31, align 4
  %35 = icmp eq i32 %34, 705
  br i1 %35, label %36, label %44

36:                                               ; preds = %24
  store i32 25, ptr %31, align 4
  %37 = load i8, ptr %30, align 8, !range !3, !noundef !4
  %38 = trunc nuw i8 %37 to i1
  br i1 %38, label %56, label %39

39:                                               ; preds = %36
  %40 = load i64, ptr %28, align 8
  %41 = inttoptr i64 %40 to ptr
  %42 = call ptr @cstring_to_text(ptr noundef %41) #12
  %43 = ptrtoint ptr %42 to i64
  store i64 %43, ptr %28, align 8
  br label %56

44:                                               ; preds = %24
  %45 = load i8, ptr %30, align 8, !range !3, !noundef !4
  %46 = trunc nuw i8 %45 to i1
  br i1 %46, label %56, label %47

47:                                               ; preds = %44
  call void @llvm.lifetime.start.p0(i64 2, ptr nonnull %4) #12
  call void @llvm.lifetime.start.p0(i64 1, ptr nonnull %5) #12
  call void @get_typlenbyval(i32 noundef %34, ptr noundef nonnull %4, ptr noundef nonnull %5) #12
  %48 = load i8, ptr %5, align 1, !range !3, !noundef !4
  %49 = trunc nuw i8 %48 to i1
  br i1 %49, label %55, label %50

50:                                               ; preds = %47
  %51 = load i64, ptr %28, align 8
  %52 = load i16, ptr %4, align 2
  %53 = sext i16 %52 to i32
  %54 = call i64 @datumCopy(i64 noundef %51, i1 noundef zeroext false, i32 noundef %53) #12
  store i64 %54, ptr %28, align 8
  br label %55

55:                                               ; preds = %50, %47
  call void @llvm.lifetime.end.p0(i64 1, ptr nonnull %5) #12
  call void @llvm.lifetime.end.p0(i64 2, ptr nonnull %4) #12
  br label %56

56:                                               ; preds = %44, %55, %36, %39
  store ptr %33, ptr @CurrentMemoryContext, align 8
  %57 = load ptr, ptr %22, align 8
  %.not.i37 = icmp eq ptr %57, null
  br i1 %.not.i37, label %59, label %58

58:                                               ; preds = %56
  call void @SPI_freetuptable(ptr noundef nonnull %57) #12
  br label %59

59:                                               ; preds = %58, %56
  store ptr null, ptr %22, align 8
  %60 = load ptr, ptr %23, align 8
  %.not6.i = icmp eq ptr %60, null
  br i1 %.not6.i, label %exec_eval_cleanup.exit, label %61

61:                                               ; preds = %59
  %62 = getelementptr inbounds nuw i8, ptr %60, i64 40
  %63 = load ptr, ptr %62, align 8
  call void @MemoryContextReset(ptr noundef %63) #12
  br label %exec_eval_cleanup.exit

exec_eval_cleanup.exit:                           ; preds = %59, %61
  %indvars.iv.next = add nuw nsw i64 %indvars.iv, 1
  call void @llvm.lifetime.end.p0(i64 4, ptr nonnull %3) #12
  %64 = load i32, ptr %7, align 4
  %65 = sext i32 %64 to i64
  %.not = icmp slt i64 %indvars.iv.next, %65
  br i1 %.not, label %24, label %.loopexit, !llvm.loop !22

.loopexit:                                        ; preds = %exec_eval_cleanup.exit, %get_stmt_mcontext.exit, %2
  %.0 = phi ptr [ null, %2 ], [ %18, %get_stmt_mcontext.exit ], [ %18, %exec_eval_cleanup.exit ]
  ret ptr %.0
}